******************************************************************************
       MSP430 Evaluation Linker PC v3.3.2                      
******************************************************************************
>> Linked Thu Feb 14 00:34:54 2013

OUTPUT FILE NAME:   <Bluebread_2452.out>
ENTRY POINT SYMBOL: "_c_int00"  address: 0000e434


MEMORY CONFIGURATION

         name            origin    length      used     unused   attr    fill
----------------------  --------  ---------  --------  --------  ----  --------
  SFR                   00000000   00000010  00000000  00000010  RWIX
  PERIPHERALS_8BIT      00000010   000000f0  00000000  000000f0  RWIX
  PERIPHERALS_16BIT     00000100   00000100  00000000  00000100  RWIX
  RAM                   00000200   00000100  0000006c  00000094  RWIX
  INFOD                 00001000   00000040  00000000  00000040  RWIX
  INFOC                 00001040   00000040  00000000  00000040  RWIX
  INFOB                 00001080   00000040  00000000  00000040  RWIX
  INFOA                 000010c0   00000040  00000000  00000040  RWIX
  FLASH                 0000e000   00001fe0  000007bf  00001821  RWIX
  INT00                 0000ffe0   00000002  00000000  00000002  RWIX
  INT01                 0000ffe2   00000002  00000000  00000002  RWIX
  INT02                 0000ffe4   00000002  00000002  00000000  RWIX
  INT03                 0000ffe6   00000002  00000000  00000002  RWIX
  INT04                 0000ffe8   00000002  00000000  00000002  RWIX
  INT05                 0000ffea   00000002  00000000  00000002  RWIX
  INT06                 0000ffec   00000002  00000000  00000002  RWIX
  INT07                 0000ffee   00000002  00000000  00000002  RWIX
  INT08                 0000fff0   00000002  00000000  00000002  RWIX
  INT09                 0000fff2   00000002  00000002  00000000  RWIX
  INT10                 0000fff4   00000002  00000000  00000002  RWIX
  INT11                 0000fff6   00000002  00000000  00000002  RWIX
  INT12                 0000fff8   00000002  00000000  00000002  RWIX
  INT13                 0000fffa   00000002  00000000  00000002  RWIX
  INT14                 0000fffc   00000002  00000000  00000002  RWIX
  RESET                 0000fffe   00000002  00000002  00000000  RWIX


SECTION ALLOCATION MAP

 output                                  attributes/
section   page    origin      length       input sections
--------  ----  ----------  ----------   ----------------
xdc.meta   0    00000000    00000111     COPY SECTION
                  00000000    00000111     main_p430.o430 (xdc.meta)

.pinit     0    0000e000    00000000     UNINITIALIZED

.bss       0    00000200    0000002c     UNINITIALIZED
                  00000200    00000014     atcmd.obj (.bss)
                  00000214    00000008     atmachine.obj (.bss)
                  0000021c    00000008     serial.obj (.bss)
                  00000224    00000004     rts430.lib : _lock.obj (.bss)
                  00000228    00000004     ti.targets.msp430.rts430.a430 : boot.o430 (.bss)

.stack     0    000002c0    00000040     UNINITIALIZED
                  000002c0    00000002     ti.targets.msp430.rts430.a430 : boot.o430 (.stack)
                  000002c2    0000003e     --HOLE--

.text      0    0000e000    0000069a     
                  0000e000    00000162     atcmd.obj (.text:at_inter)
                  0000e162    0000015a     atmachine.obj (.text:at_machine)
                  0000e2bc    00000080     serial.obj (.text:suart_timer_tick)
                  0000e33c    00000052     ti.targets.msp430.rts430.a430 : autoinit.o430 (.text:_auto_init)
                  0000e38e    0000003a     main.obj (.text:main)
                  0000e3c8    0000003a     serial.obj (.text:transmit)
                  0000e402    00000032     csl.lib : GPIO_init.obj (.text:GPIO_init)
                  0000e434    00000032     ti.targets.msp430.rts430.a430 : boot.o430 (.text:_c_int00_noexit)
                  0000e466    0000002c     rts430.lib : lsl16.obj (.text)
                  0000e492    0000002a     ti.targets.msp430.rts430.a430 : pre_init.o430 (.text:_system_pre_init)
                  0000e4bc    00000028     csl.lib : BCSplus_init.obj (.text:BCSplus_init)
                  0000e4e4    00000028     serial.obj (.text:suart_start_rx)
                  0000e50c    00000024     serial.obj (.text:putstr)
                  0000e530    00000022     csl.lib : USI_init.obj (.text:USI_init)
                  0000e552    00000020     gpio.obj (.text:port_out_reset)
                  0000e572    00000020     gpio.obj (.text:port_out_set)
                  0000e592    0000001e     gpio.obj (.text:port_in)
                  0000e5b0    0000001a     csl.lib : CSL_init.obj (.text:CSL_init)
                  0000e5ca    0000001a             : CSL_init.obj (.text:PORT1_ISR_HOOK)
                  0000e5e4    0000001a             : CSL_init.obj (.text:TIMER0_A0_ISR_HOOK)
                  0000e5fe    00000014             : Timer0_A3_init.obj (.text:Timer0_A3_init)
                  0000e612    00000012     atmachine.obj (.text:at_machine_init)
                  0000e624    00000012     rts430.lib : memcpy.obj (.text:memcpy)
                  0000e636    00000010                : epilog.obj (.text)
                  0000e646    0000000e     atcmd.obj (.text:at_init)
                  0000e654    0000000e     serial.obj (.text:suart_init)
                  0000e662    0000000a     serial.obj (.text:suart_get_last_rx)
                  0000e66c    00000008     csl.lib : WDTplus_init.obj (.text:WDTplus_init)
                  0000e674    00000006     main.obj (.text:Port_1_ISR)
                  0000e67a    00000006     main.obj (.text:Timer_A3_CCR0_ISR)
                  0000e680    00000006     atcmd.obj (.text:at_get_last_cmd)
                  0000e686    00000006     atcmd.obj (.text:at_get_write_value)
                  0000e68c    00000006     serial.obj (.text:suart_data_avaliable)
                  0000e692    00000004     rts430.lib : exit.obj (.text:abort)
                  0000e696    00000002     csl.lib : System_init.obj (.text:System_init)
                  0000e698    00000002     rts430.lib : _lock.obj (.text:_nop)

.const     0    0000e69a    00000107     
                  0000e69a    000000d8     atmachine.obj (.const:.string)
                  0000e772    0000001c     main.obj (.const:.string)
                  0000e78e    00000004     atcmd.obj (.const:aucatlookupt3)
                  0000e792    00000004     atcmd.obj (.const:aucatlookupt4)
                  0000e796    00000004     atcmd.obj (.const:aucatlookupt5)
                  0000e79a    00000004     atcmd.obj (.const:aucatlookupt6)
                  0000e79e    00000002     atcmd.obj (.const:aucatlookupt1)
                  0000e7a0    00000001     atcmd.obj (.const:aucatlookupt2)

.cinit     0    0000e7a2    0000001e     
                  0000e7a2    00000010     atcmd.obj (.cinit)
                  0000e7b2    0000000b     serial.obj (.cinit)
                  0000e7bd    00000001     --HOLE-- [fill = 0]
                  0000e7be    00000002     (.pad.cinit) [fill = 0]

.int02     0    0000ffe4    00000002     
                  0000ffe4    00000002     csl.lib : CSL_init.obj (.int02)

.int09     0    0000fff2    00000002     
                  0000fff2    00000002     csl.lib : CSL_init.obj (.int09)

.reset     0    0000fffe    00000002     
                  0000fffe    00000002     ti.targets.msp430.rts430.a430 : boot.o430 (.reset)


GLOBAL SYMBOLS: SORTED ALPHABETICALLY BY Name 

address    name
--------   ----
00000200   .bss
0000e000   .text
0000004a   ADC10AE0
000001b0   ADC10CTL0
000001b2   ADC10CTL1
00000048   ADC10DTC0
00000049   ADC10DTC1
000001b4   ADC10MEM
000001bc   ADC10SA
00000057   BCSCTL1
00000058   BCSCTL2
00000053   BCSCTL3
0000e4bc   BCSplus_init
0000e692   C$$EXIT
00000059   CACTL1
0000005a   CACTL2
000010fb   CALBC1_12MHZ
000010f9   CALBC1_16MHZ
000010ff   CALBC1_1MHZ
000010fd   CALBC1_8MHZ
000010fa   CALDCO_12MHZ
000010f8   CALDCO_16MHZ
000010fe   CALDCO_1MHZ
000010fc   CALDCO_8MHZ
0000005b   CAPD
0000e5b0   CSL_init
00000056   DCOCTL
00000128   FCTL1
0000012a   FCTL2
0000012c   FCTL3
0000e402   GPIO_init
00000000   IE1
00000002   IFG1
0000e466   I_LSL
0000e48e   I_LSL_1
0000e47c   I_LSL_10
0000e47a   I_LSL_11
0000e478   I_LSL_12
0000e476   I_LSL_13
0000e474   I_LSL_14
0000e472   I_LSL_15
0000e48c   I_LSL_2
0000e48a   I_LSL_3
0000e488   I_LSL_4
0000e486   I_LSL_5
0000e484   I_LSL_6
0000e482   I_LSL_7
0000e480   I_LSL_8
0000e47e   I_LSL_9
00000022   P1DIR
00000025   P1IE
00000024   P1IES
00000023   P1IFG
00000020   P1IN
00000021   P1OUT
00000027   P1REN
00000026   P1SEL
00000041   P1SEL2
0000002a   P2DIR
0000002d   P2IE
0000002c   P2IES
0000002b   P2IFG
00000028   P2IN
00000029   P2OUT
0000002f   P2REN
0000002e   P2SEL
00000042   P2SEL2
0000e5ca   PORT1_ISR_HOOK
0000e674   Port_1_ISR
0000021b   Portloop
0000e696   System_init
00000172   TA0CCR0
00000174   TA0CCR1
00000176   TA0CCR2
00000162   TA0CCTL0
00000164   TA0CCTL1
00000166   TA0CCTL2
00000160   TA0CTL
0000012e   TA0IV
00000170   TA0R
0000e5e4   TIMER0_A0_ISR_HOOK
0000e5fe   Timer0_A3_init
0000e67a   Timer_A3_CCR0_ISR
0000007a   USICCTL
0000007a   USICKCTL
0000007b   USICNT
00000078   USICTL
00000078   USICTL0
00000079   USICTL1
0000007c   USISR
0000007d   USISRH
0000007c   USISRL
0000e530   USI_init
00000120   WDTCTL
0000e66c   WDTplus_init
00000000   __ASM__
0000008c   __ISA__
0000009e   __PLAT__
00000300   __STACK_END
00000040   __STACK_SIZE
000000c2   __TARG__
00000001   __TI_args_main
00000001   __TI_auto_init
00000001   __TI_exit
000000ea   __TRDR__
ffffffff   __binit__
00000200   __bss__
ffffffff   __c_args__
0000e7a2   __cinit__
0000022c   __end__
0000e69a   __etext__
ffffffff   __pinit__
0000e000   __text__
0000e33c   _auto_init
0000e434   _c_int00
0000e434   _c_int00_noexit
00000228   _cleanup_ptr
0000022a   _dtors_ptr
00000224   _lock
0000e698   _nop
0000fffe   _reset_vector
000002c0   _stack
0000e492   _system_pre_init
00000226   _unlock
0000e692   abort
0000e680   at_get_last_cmd
0000e686   at_get_write_value
0000e646   at_init
0000e000   at_inter
0000e162   at_machine
0000e612   at_machine_init
00000222   bBusyRX
00000223   bDataAvaliable
ffffffff   binit
0000021c   bitCnt
0000e7a2   cinit
0000022c   end
0000e69a   etext
0000e642   func_epilog_1
0000e640   func_epilog_2
0000e63e   func_epilog_3
0000e63c   func_epilog_4
0000e63a   func_epilog_5
0000e638   func_epilog_6
0000e636   func_epilog_7
0000e38e   main
0000e624   memcpy
ffffffff   pinit
0000e592   port_in
0000e552   port_out_reset
0000e572   port_out_set
0000e50c   putstr
00000220   rxByte
00000221   rxMask
0000020c   s_at_inter
00000214   s_at_machine
0000e68c   suart_data_avaliable
0000e662   suart_get_last_rx
0000e654   suart_init
0000e4e4   suart_start_rx
0000e2bc   suart_timer_tick
0000e3c8   transmit
0000021e   txByte
0000021a   txPortStatus
00000000   xdc_runtime_Startup__EXECFXN__C
00000000   xdc_runtime_Startup__RESETFXN__C
00000000   xdc_runtime_Startup_exec__E
00000000   xdc_runtime_Startup_reset__I


GLOBAL SYMBOLS: SORTED BY Symbol Address 

address    name
--------   ----
00000000   IE1
00000000   __ASM__
00000000   xdc_runtime_Startup__EXECFXN__C
00000000   xdc_runtime_Startup__RESETFXN__C
00000000   xdc_runtime_Startup_exec__E
00000000   xdc_runtime_Startup_reset__I
00000001   __TI_args_main
00000001   __TI_auto_init
00000001   __TI_exit
00000002   IFG1
00000020   P1IN
00000021   P1OUT
00000022   P1DIR
00000023   P1IFG
00000024   P1IES
00000025   P1IE
00000026   P1SEL
00000027   P1REN
00000028   P2IN
00000029   P2OUT
0000002a   P2DIR
0000002b   P2IFG
0000002c   P2IES
0000002d   P2IE
0000002e   P2SEL
0000002f   P2REN
00000040   __STACK_SIZE
00000041   P1SEL2
00000042   P2SEL2
00000048   ADC10DTC0
00000049   ADC10DTC1
0000004a   ADC10AE0
00000053   BCSCTL3
00000056   DCOCTL
00000057   BCSCTL1
00000058   BCSCTL2
00000059   CACTL1
0000005a   CACTL2
0000005b   CAPD
00000078   USICTL
00000078   USICTL0
00000079   USICTL1
0000007a   USICCTL
0000007a   USICKCTL
0000007b   USICNT
0000007c   USISR
0000007c   USISRL
0000007d   USISRH
0000008c   __ISA__
0000009e   __PLAT__
000000c2   __TARG__
000000ea   __TRDR__
00000120   WDTCTL
00000128   FCTL1
0000012a   FCTL2
0000012c   FCTL3
0000012e   TA0IV
00000160   TA0CTL
00000162   TA0CCTL0
00000164   TA0CCTL1
00000166   TA0CCTL2
00000170   TA0R
00000172   TA0CCR0
00000174   TA0CCR1
00000176   TA0CCR2
000001b0   ADC10CTL0
000001b2   ADC10CTL1
000001b4   ADC10MEM
000001bc   ADC10SA
00000200   .bss
00000200   __bss__
0000020c   s_at_inter
00000214   s_at_machine
0000021a   txPortStatus
0000021b   Portloop
0000021c   bitCnt
0000021e   txByte
00000220   rxByte
00000221   rxMask
00000222   bBusyRX
00000223   bDataAvaliable
00000224   _lock
00000226   _unlock
00000228   _cleanup_ptr
0000022a   _dtors_ptr
0000022c   __end__
0000022c   end
000002c0   _stack
00000300   __STACK_END
000010f8   CALDCO_16MHZ
000010f9   CALBC1_16MHZ
000010fa   CALDCO_12MHZ
000010fb   CALBC1_12MHZ
000010fc   CALDCO_8MHZ
000010fd   CALBC1_8MHZ
000010fe   CALDCO_1MHZ
000010ff   CALBC1_1MHZ
0000e000   .text
0000e000   __text__
0000e000   at_inter
0000e162   at_machine
0000e2bc   suart_timer_tick
0000e33c   _auto_init
0000e38e   main
0000e3c8   transmit
0000e402   GPIO_init
0000e434   _c_int00
0000e434   _c_int00_noexit
0000e466   I_LSL
0000e472   I_LSL_15
0000e474   I_LSL_14
0000e476   I_LSL_13
0000e478   I_LSL_12
0000e47a   I_LSL_11
0000e47c   I_LSL_10
0000e47e   I_LSL_9
0000e480   I_LSL_8
0000e482   I_LSL_7
0000e484   I_LSL_6
0000e486   I_LSL_5
0000e488   I_LSL_4
0000e48a   I_LSL_3
0000e48c   I_LSL_2
0000e48e   I_LSL_1
0000e492   _system_pre_init
0000e4bc   BCSplus_init
0000e4e4   suart_start_rx
0000e50c   putstr
0000e530   USI_init
0000e552   port_out_reset
0000e572   port_out_set
0000e592   port_in
0000e5b0   CSL_init
0000e5ca   PORT1_ISR_HOOK
0000e5e4   TIMER0_A0_ISR_HOOK
0000e5fe   Timer0_A3_init
0000e612   at_machine_init
0000e624   memcpy
0000e636   func_epilog_7
0000e638   func_epilog_6
0000e63a   func_epilog_5
0000e63c   func_epilog_4
0000e63e   func_epilog_3
0000e640   func_epilog_2
0000e642   func_epilog_1
0000e646   at_init
0000e654   suart_init
0000e662   suart_get_last_rx
0000e66c   WDTplus_init
0000e674   Port_1_ISR
0000e67a   Timer_A3_CCR0_ISR
0000e680   at_get_last_cmd
0000e686   at_get_write_value
0000e68c   suart_data_avaliable
0000e692   C$$EXIT
0000e692   abort
0000e696   System_init
0000e698   _nop
0000e69a   __etext__
0000e69a   etext
0000e7a2   __cinit__
0000e7a2   cinit
0000fffe   _reset_vector
ffffffff   __binit__
ffffffff   __c_args__
ffffffff   __pinit__
ffffffff   binit
ffffffff   pinit

[168 symbols]
